Certificate:
    Data:
        Version: 3 (0x2)
        Serial Number: 1 (0x1)
    Signature Algorithm: sha1WithRSAEncryption
        Issuer: C=GB, ST=England, L=London, O=Hinterlands, OU=29HC, CN=Hinterlands/emailAddress=ca@hinterlands.org
        Validity
            Not Before: Jan 27 11:06:40 2019 GMT
            Not After : Jan 26 11:06:40 2024 GMT
        Subject: C=GB, ST=England, O=Hinterlands, OU=29HC, CN=unifi.hinterlands.org
        Subject Public Key Info:
            Public Key Algorithm: rsaEncryption
                Public-Key: (2048 bit)
                Modulus:
                    00:c0:7f:36:28:d2:04:69:3e:5d:0b:e9:05:fb:b5:
                    10:89:57:b9:f7:42:a3:63:75:ab:30:12:35:d0:9c:
                    a4:ee:70:7c:b4:5c:ac:02:2a:09:6d:72:39:02:36:
                    5f:b6:3f:ff:14:30:83:4c:71:a0:a8:48:e8:29:db:
                    da:d1:d0:46:b8:fa:9f:89:96:67:48:9d:82:4a:8a:
                    23:51:c9:58:4e:22:80:d2:1b:e0:51:98:93:cb:aa:
                    de:a7:52:8f:18:ae:81:a2:ca:cd:c8:2c:37:8d:a6:
                    dc:19:88:95:48:e4:2a:c6:a2:9b:4c:49:36:bc:6e:
                    8e:d8:11:03:75:ff:16:1f:d3:e0:df:aa:c8:c8:7a:
                    3c:84:d7:45:31:fc:01:e2:cc:30:93:65:9b:1e:08:
                    4e:88:e2:20:05:11:98:14:5a:b0:d3:98:01:69:a5:
                    3a:f5:be:7b:fe:b0:81:cc:63:0f:6b:8d:71:3b:d1:
                    2b:47:b2:bc:d2:a5:b0:38:e8:b3:8c:ad:61:07:e6:
                    18:18:4a:01:ab:8e:6e:d2:53:ec:fd:ba:59:fb:39:
                    de:90:e1:89:cb:07:e6:bb:d2:6d:62:b1:ea:88:3f:
                    2d:2d:e2:89:30:33:6f:17:96:24:23:64:b7:c2:0f:
                    fe:2c:3f:68:7e:0f:43:0a:1f:12:5b:dd:49:de:b2:
                    72:21
                Exponent: 65537 (0x10001)
        X509v3 extensions:
            X509v3 Basic Constraints: 
                CA:FALSE
            X509v3 Subject Key Identifier: 
                7A:A5:5B:FC:47:9D:BD:34:5E:DF:0E:89:56:5E:CE:7F:27:C4:2B:67
            X509v3 Authority Key Identifier: 
                keyid:79:A9:06:DF:E7:02:71:9A:49:6E:17:23:99:35:50:F5:DE:1D:1D:FE

            X509v3 Subject Alternative Name: 
                <EMPTY>

    Signature Algorithm: sha1WithRSAEncryption
         96:a9:5f:af:c5:81:36:5c:87:4f:36:42:6a:6c:ad:af:f7:f7:
         33:f1:55:e9:a4:2b:ca:f3:b8:83:6f:06:cc:80:51:99:89:79:
         09:0a:33:d4:44:91:47:bd:79:5a:09:7c:7e:08:d9:aa:71:d2:
         85:95:f5:e8:68:71:3e:fa:83:f9:bc:f1:ba:e8:a7:52:1c:b1:
         ba:6d:66:58:79:e4:9b:f1:63:85:94:0f:2c:31:5e:84:e6:ad:
         a4:c3:4c:fe:cc:a8:80:61:c3:3b:de:47:cf:05:4e:07:e2:6d:
         14:2f:8d:6b:a5:cf:a9:bf:f2:2e:04:4d:da:5f:48:27:8f:9e:
         ba:5d:35:f4:ac:bf:b3:ae:96:e1:28:c3:4a:5a:dd:dc:51:5c:
         0a:66:07:10:5e:57:cb:ef:f1:f3:a8:cd:21:83:eb:82:9b:5a:
         56:19:eb:e4:96:e6:f1:fb:0c:a0:ab:0a:c7:2d:67:14:84:e9:
         25:74:2f:9a:41:9f:01:a5:f8:4b:9b:18:ba:71:25:c5:2a:97:
         73:31:e3:09:76:06:b1:d5:0f:a4:8c:32:04:0b:53:5a:a4:94:
         7d:27:d1:99:4b:d0:6c:a7:f9:e9:33:dc:ce:22:60:2c:15:dc:
         38:12:ad:f4:45:3e:40:6a:fd:a1:68:79:1e:51:6c:3a:29:73:
         43:f7:b0:47
-----BEGIN CERTIFICATE-----
MIIDxjCCAq6gAwIBAgIBATANBgkqhkiG9w0BAQUFADCBjjELMAkGA1UEBhMCR0Ix
EDAOBgNVBAgMB0VuZ2xhbmQxDzANBgNVBAcMBkxvbmRvbjEUMBIGA1UECgwLSGlu
dGVybGFuZHMxDTALBgNVBAsMBDI5SEMxFDASBgNVBAMMC0hpbnRlcmxhbmRzMSEw
HwYJKoZIhvcNAQkBFhJjYUBoaW50ZXJsYW5kcy5vcmcwHhcNMTkwMTI3MTEwNjQw
WhcNMjQwMTI2MTEwNjQwWjBkMQswCQYDVQQGEwJHQjEQMA4GA1UECAwHRW5nbGFu
ZDEUMBIGA1UECgwLSGludGVybGFuZHMxDTALBgNVBAsMBDI5SEMxHjAcBgNVBAMM
FXVuaWZpLmhpbnRlcmxhbmRzLm9yZzCCASIwDQYJKoZIhvcNAQEBBQADggEPADCC
AQoCggEBAMB/NijSBGk+XQvpBfu1EIlXufdCo2N1qzASNdCcpO5wfLRcrAIqCW1y
OQI2X7Y//xQwg0xxoKhI6Cnb2tHQRrj6n4mWZ0idgkqKI1HJWE4igNIb4FGYk8uq
3qdSjxiugaLKzcgsN42m3BmIlUjkKsaim0xJNrxujtgRA3X/Fh/T4N+qyMh6PITX
RTH8AeLMMJNlmx4ITojiIAURmBRasNOYAWmlOvW+e/6wgcxjD2uNcTvRK0eyvNKl
sDjos4ytYQfmGBhKAauObtJT7P26Wfs53pDhicsH5rvSbWKx6og/LS3iiTAzbxeW
JCNkt8IP/iw/aH4PQwofElvdSd6yciECAwEAAaNYMFYwCQYDVR0TBAIwADAdBgNV
HQ4EFgQUeqVb/EedvTRe3w6JVl7OfyfEK2cwHwYDVR0jBBgwFoAUeakG3+cCcZpJ
bhcjmTVQ9d4dHf4wCQYDVR0RBAIwADANBgkqhkiG9w0BAQUFAAOCAQEAlqlfr8WB
NlyHTzZCamytr/f3M/FV6aQryvO4g28GzIBRmYl5CQoz1ESRR715Wgl8fgjZqnHS
hZX16GhxPvqD+bzxuuinUhyxum1mWHnkm/FjhZQPLDFehOatpMNM/syogGHDO95H
zwVOB+JtFC+Na6XPqb/yLgRN2l9IJ4+eul019Ky/s66W4SjDSlrd3FFcCmYHEF5X
y+/x86jNIYPrgptaVhnr5Jbm8fsMoKsKxy1nFITpJXQvmkGfAaX4S5sYunElxSqX
czHjCXYGsdUPpIwyBAtTWqSUfSfRmUvQbKf56TPcziJgLBXcOBKt9EU+QGr9oWh5
HlFsOilzQ/ewRw==
-----END CERTIFICATE-----
